 00000100:		(422)	TEXT	main+0(SB),R1,$-4
 00000100: e59fc4e4	(424)	MOVW	$setR12+0(SB),R12
 00000104: e58d0004	(426)	MOVW	R0,p1+0(FP)
 00000108: e1a08000	(429)	MOVW	R0,R8
 0000010c: e59d9008	(430)	MOVW	p2+4(FP),R9
 00000110: e59da00c	(431)	MOVW	n+8(FP),R10
 00000114: e3a00000	(432)	MOVW	$0,R0
 00000118: ee070f95	(432)	WORD	,$-301527147
 0000011c: e59f74cc	(432)	MOVW	$-251584512,R7
 00000120: e3a01052	(432)	MOVW	$82,R1
 00000124: e5871000	(432)	MOVW	R1,0(R7)
 00000128: e3a00000	(432)	MOVW	$0,R0
 0000012c: ee070f95	(433)	WORD	,$-301527147
 00000130: eb000059	(433)	BL	,cachesoff+0029c(BRANCH)
 00000134: e3a00000	(437)	MOVW	$0,R0
 00000138: ee070f95	(437)	WORD	,$-301527147
 0000013c: e59f74ac	(437)	MOVW	$-251584512,R7
 00000140: e3a01065	(437)	MOVW	$101,R1
 00000144: e5871000	(437)	MOVW	R1,0(R7)
 00000148: e3a00000	(437)	MOVW	$0,R0
 0000014c: ee070f95	(438)	WORD	,$-301527147
 00000150: e3a0720e	(439)	MOVW	$-536870912,R7
 00000154: e3a00000	(440)	MOVW	$0,R0
 00000158: eb00007b	(440)	BL	,_r15warp+0034c(BRANCH)
 0000015c: e1ccc007	(443)	BIC	R7,R12
 00000160: e1cdd007	(444)	BIC	R7,R13
 00000164: e3a00000	(446)	MOVW	$0,R0
 00000168: ee070f95	(446)	WORD	,$-301527147
 0000016c: e59f747c	(446)	MOVW	$-251584512,R7
 00000170: e3a01062	(446)	MOVW	$98,R1
 00000174: e5871000	(446)	MOVW	R1,0(R7)
 00000178: e3a00000	(446)	MOVW	$0,R0
 0000017c: ee070f95	(447)	WORD	,$-301527147
 00000180: eb00007d	(447)	BL	,mmuinvalidate+0037c(BRANCH)
 00000184: e3a00000	(448)	MOVW	$0,R0
 00000188: ee070f95	(448)	WORD	,$-301527147
 0000018c: e59f745c	(448)	MOVW	$-251584512,R7
 00000190: e3a0106f	(448)	MOVW	$111,R1
 00000194: e5871000	(448)	MOVW	R1,0(R7)
 00000198: e3a00000	(448)	MOVW	$0,R0
 0000019c: ee070f95	(449)	WORD	,$-301527147
 000001a0: eb00006c	(449)	BL	,mmudisable+00358(BRANCH)
 000001a4: e3a00000	(451)	MOVW	$0,R0
 000001a8: ee070f95	(451)	WORD	,$-301527147
 000001ac: e59f743c	(451)	MOVW	$-251584512,R7
 000001b0: e3a0106f	(451)	MOVW	$111,R1
 000001b4: e5871000	(451)	MOVW	R1,0(R7)
 000001b8: e3a00000	(451)	MOVW	$0,R0
 000001bc: ee070f95	(452)	WORD	,$-301527147
 000001c0: e1a04009	(453)	MOVW	R9,R4
 000001c4: e1a0500a	(454)	MOVW	R10,R5
 000001c8: e1a06008	(455)	MOVW	R8,R6
 000001cc: e1a0d006	(458)	MOVW	R6,R13
 000001d0: e24dd024	(459)	SUB	$36,R13
 000001d4: e50de030	(461)	MOVW	R14,-48(SP)
 000001d8: e24dd030	(462)	SUB	$48,R13
 000001dc: e58d602c	(464)	MOVW	R6,44(SP)
 000001e0: e58d5028	(465)	MOVW	R5,40(SP)
 000001e4: e3a00000	(466)	MOVW	$0,R0
 000001e8: ee070f95	(466)	WORD	,$-301527147
 000001ec: e59f73fc	(466)	MOVW	$-251584512,R7
 000001f0: e3a01074	(466)	MOVW	$116,R1
 000001f4: e5871000	(466)	MOVW	R1,0(R7)
 000001f8: e3a00000	(466)	MOVW	$0,R0
 000001fc: ee070f95	(467)	WORD	,$-301527147
 00000200: e58d6000	(469)	MOVW	R6,0(SP)
 00000204: e58d6004	(470)	MOVW	R6,4(SP)
 00000208: e1a00006	(471)	MOVW	R6,R0
 0000020c: e58d4008	(472)	MOVW	R4,8(SP)
 00000210: e58d500c	(473)	MOVW	R5,12(SP)
 00000214: eb0000f2	(473)	BL	,memmove+005e4(BRANCH)
 00000218: e59d602c	(476)	MOVW	44(SP),R6
 0000021c: e59d5028	(477)	MOVW	40(SP),R5
 00000220: e3a00000	(477)	MOVW	$0,R0
 00000224: ee070f95	(477)	WORD	,$-301527147
 00000228: e59f73c0	(477)	MOVW	$-251584512,R7
 0000022c: e3a0102d	(477)	MOVW	$45,R1
 00000230: e5871000	(477)	MOVW	R1,0(R7)
 00000234: e3a00000	(477)	MOVW	$0,R0
 00000238: ee070f95	(478)	WORD	,$-301527147
 0000023c: eb000055	(481)	BL	,cacheuwbinv+00398(BRANCH)
 00000240: e3a00000	(483)	MOVW	$0,R0
 00000244: ee070f95	(483)	WORD	,$-301527147
 00000248: e59f73a0	(483)	MOVW	$-251584512,R7
 0000024c: e3a0103e	(483)	MOVW	$62,R1
 00000250: e5871000	(483)	MOVW	R1,0(R7)
 00000254: e3a00000	(483)	MOVW	$0,R0
 00000258: ee070f95	(484)	WORD	,$-301527147
 0000025c: e3a00000	(484)	MOVW	$0,R0
 00000260: ee070f95	(484)	WORD	,$-301527147
 00000264: e59f7384	(484)	MOVW	$-251584512,R7
 00000268: e3a0100d	(484)	MOVW	$13,R1
 0000026c: e5871000	(484)	MOVW	R1,0(R7)
 00000270: e3a00000	(484)	MOVW	$0,R0
 00000274: ee070f95	(484)	WORD	,$-301527147
 00000278: e3a00000	(485)	MOVW	$0,R0
 0000027c: ee070f95	(485)	WORD	,$-301527147
 00000280: e59f7368	(485)	MOVW	$-251584512,R7
 00000284: e3a0100a	(485)	MOVW	$10,R1
 00000288: e5871000	(485)	MOVW	R1,0(R7)
 0000028c: e3a00000	(485)	MOVW	$0,R0
 00000290: ee070f95	(485)	WORD	,$-301527147
 00000294: e1866006	(492)	ORR	R6,R6
 00000298: e286f000	(492)	B	,0(R6)
 0000029c:		(498)	TEXT	cachesoff+0(SB),R1,$-4
 0000029c: e3a000d3	(500)	MOVW	$211,R0
 000002a0: e129f000	(500)	MOVW	R0,CPSR
 000002a4: e59f7348	(502)	MOVW	$1610612988,R7
 000002a8: e587e000	(502)	MOVW	R14,0(R7)
 000002ac: eb000039	(504)	BL	,cacheuwbinv+00398(BRANCH)
 000002b0: ee110f10	(507)	WORD	,$-300871920
 000002b4: e59fb33c e1c0000b(508)	BIC	$4110,R0
 000002bc: ee010f10	(509)	WORD	,$-301920496
 000002c0: e3a00000	(509)	MOVW	$0,R0
 000002c4: ee070f95	(509)	WORD	,$-301527147
 000002c8: e3a00000	(509)	MOVW	$0,R0
 000002cc: ee070f9a	(510)	WORD	,$-301527142
 000002d0: e59f4324	(513)	MOVW	$1610678272,R4
 000002d4: e59f2324	(514)	MOVW	$1054,R2
 000002d8: e3a03000	(516)	MOVW	$0,R3
 000002dc: e3a05c02	(517)	MOVW	$512,R5
 000002e0: e1821003	(518)	ORR	R3,R2,R1
 000002e4: e5841000	(519)	MOVW	R1,0(R4)
 000002e8: e2844004	(521)	ADD	$4,R4
 000002ec: e2833601	(522)	ADD	$1048576,R3
 000002f0: e2555001	(523)	SUB.S	$1,R5
 000002f4: 1afffff9	(524)	BNE	,_ptrdbl+002e0(BRANCH)
 000002f8: e3a00000	(525)	MOVW	$0,R0
 000002fc: ee070f95	(525)	WORD	,$-301527147
 00000300: e3a00000	(525)	MOVW	$0,R0
 00000304: ee070f9a	(526)	WORD	,$-301527142
 00000308: e3a00000	(527)	MOVW	$0,R0
 0000030c: ee080f16	(528)	WORD	,$-301461738
 00000310: ee080f17	(529)	WORD	,$-301461737
 00000314: e3a00000	(529)	MOVW	$0,R0
 00000318: ee070f95	(529)	WORD	,$-301527147
 0000031c: e3a00000	(529)	MOVW	$0,R0
 00000320: ee070f9a	(530)	WORD	,$-301527142
 00000324: ee110f10	(533)	WORD	,$-300871920
 00000328: e3c00030	(534)	BIC	$48,R0
 0000032c: ee010f10	(535)	WORD	,$-301920496
 00000330: e3a00000	(535)	MOVW	$0,R0
 00000334: ee070f95	(535)	WORD	,$-301527147
 00000338: e3a00000	(535)	MOVW	$0,R0
 0000033c: ee070f9a	(536)	WORD	,$-301527142
 00000340: e59f72ac	(538)	MOVW	$1610612988,R7
 00000344: e597e000	(539)	MOVW	0(R7),R14
 00000348: e28ef000	(540)	B	,0(R14)
 0000034c:		(541)	TEXT	_r15warp+0(SB),R1,$-4
 0000034c: e3cee20e	(543)	BIC	$-536870912,R14
 00000350: e18ee000	(544)	ORR	R0,R14
 00000354: e28ef000	(545)	B	,0(R14)
 00000358:		(546)	TEXT	mmudisable+0(SB),R1,$-4
 00000358: ee110f10	(548)	WORD	,$-300871920
 0000035c: e59fb2a0 e1c0000b(549)	BIC	$12301,R0
 00000364: ee010f10	(550)	WORD	,$-301920496
 00000368: e3a00000	(550)	MOVW	$0,R0
 0000036c: ee070f95	(550)	WORD	,$-301527147
 00000370: e3a00000	(550)	MOVW	$0,R0
 00000374: ee070f9a	(551)	WORD	,$-301527142
 00000378: e28ef000	(552)	B	,0(R14)
 0000037c:		(553)	TEXT	mmuinvalidate+0(SB),R1,$-4
 0000037c: e3a00000	(555)	MOVW	$0,R0
 00000380: ee080f17	(556)	WORD	,$-301461737
 00000384: e3a00000	(556)	MOVW	$0,R0
 00000388: ee070f95	(556)	WORD	,$-301527147
 0000038c: e3a00000	(556)	MOVW	$0,R0
 00000390: ee070f9a	(557)	WORD	,$-301527142
 00000394: e28ef000	(558)	B	,0(R14)
 00000398:		(559)	TEXT	cacheuwbinv+0(SB),R1,$-4
 00000398: e3a00000	(560)	MOVW	$0,R0
 0000039c: ee070f95	(560)	WORD	,$-301527147
 000003a0: e3a00000	(560)	MOVW	$0,R0
 000003a4: ee070f9a	(561)	WORD	,$-301527142
 000003a8: e10f3000	(562)	MOVW	CPSR,R3
 000003ac: e3831080	(562)	ORR	$128,R3,R1
 000003b0: e129f001	(563)	MOVW	R1,CPSR
 000003b4: ee17ff7e	(567)	WORD	,$-300417154
 000003b8: 1afffffd	(568)	BNE	,_uwbinv+003b4(BRANCH)
 000003bc: e3a00000	(570)	MOVW	$0,R0
 000003c0: ee070f15	(571)	WORD	,$-301527275
 000003c4: e3a00000	(572)	MOVW	$0,R0
 000003c8: ee070f95	(572)	WORD	,$-301527147
 000003cc: e3a00000	(572)	MOVW	$0,R0
 000003d0: ee070f9a	(573)	WORD	,$-301527142
 000003d4: ee2f0f19	(575)	WORD	,$-298905831
 000003d8: e3a00000	(575)	MOVW	$0,R0
 000003dc: ee070f95	(575)	WORD	,$-301527147
 000003e0: e3a00000	(575)	MOVW	$0,R0
 000003e4: ee070f9a	(576)	WORD	,$-301527142
 000003e8: ee2f0f1b	(577)	WORD	,$-298905829
 000003ec: e3a00000	(577)	MOVW	$0,R0
 000003f0: ee070f95	(577)	WORD	,$-301527147
 000003f4: e3a00000	(577)	MOVW	$0,R0
 000003f8: ee070f9a	(578)	WORD	,$-301527142
 000003fc: e129f003	(579)	MOVW	R3,CPSR
 00000400: e28ef000	(581)	B	,0(R14)
 00000404:		(8)	TEXT	memcpy+0(SB),$-4
 00000404: e58d0004	(13)	MOVW	R0,to+0(FP)
 00000408: e59d2008	(14)	MOVW	from+4(FP),R2
 0000040c: e59d300c	(15)	MOVW	n+8(FP),R3
 00000410: e0801003	(16)	ADD	R3,R0,R1
 00000414: e1500002	(19)	CMP	R2,R0,
 00000418: 9a00003a	(20)	BLS	,_forward+00508(BRANCH)
 0000041c: e0822003	(23)	ADD	R3,R2
 00000420: e3530004	(24)	CMP	$4,R3,
 00000424: ba000015	(25)	BLT	,_b1tail+00480(BRANCH)
 00000428: e2113003	(27)	AND.S	$3,R1,R3
 0000042c: 0a000003	(29)	BEQ	,_b4aligned+00440(BRANCH)
 00000430: e5723001	(31)	MOVBU.W	-1(R2),R3
 00000434: e5613001	(31)	MOVBU.W	R3,-1(R1)
 00000438: e2113003	(27)	AND.S	$3,R1,R3
 0000043c: 1afffffb	(29)	BNE	,_b4aligned+00430(BRANCH)
 00000440: e2123003	(35)	AND.S	$3,R2,R3
 00000444: 1a000015	(37)	BNE	,_bunaligned+004a0(BRANCH)
 00000448: e280301f	(38)	ADD	$31,R0,R3
 0000044c: e1510003	(41)	CMP	R3,R1,
 00000450: 9a000004	(42)	BLS	,_b4tail+00468(BRANCH)
 00000454: e93200f0	(43)	MOVM.P.W	0(R2),$240
 00000458: e92100f0	(44)	MOVM.P.W	$240,0(R1)
 0000045c: e93200f0	(45)	MOVM.P.W	0(R2),$240
 00000460: e92100f0	(46)	MOVM.P.W	$240,0(R1)
 00000464: eafffff8	(41)	B	,0044c(BRANCH)
 00000468: e2803003	(50)	ADD	$3,R0,R3
 0000046c: e1510003	(53)	CMP	R3,R1,
 00000470: 9a000002	(54)	BLS	,_b1tail+00480(BRANCH)
 00000474: e5324004	(56)	MOVW.W	-4(R2),R4
 00000478: e5214004	(56)	MOVW.W	R4,-4(R1)
 0000047c: eafffffa	(53)	B	,0046c(BRANCH)
 00000480: e1500001	(61)	CMP	R1,R0,
 00000484: 0a000003	(62)	BEQ	,_return+00498(BRANCH)
 00000488: e5723001	(64)	MOVBU.W	-1(R2),R3
 0000048c: e5613001	(64)	MOVBU.W	R3,-1(R1)
 00000490: e1500001	(61)	CMP	R1,R0,
 00000494: 1afffffb	(62)	BNE	,_return+00488(BRANCH)
 00000498: e59d0004	(114)	MOVW	to+0(FP),R0
 0000049c: e28ef000	(115)	B	,0(R14)
 000004a0: e3530002	(127)	CMP	$2,R3,
 000004a4: b3a04008	(129)	MOVW.LT	$8,R4
 000004a8: b3a05018	(130)	MOVW.LT	$24,R5
 000004ac: b3a0b001	(131)	MOVW.LT	$1,R11
 000004b0: 03a04010	(133)	MOVW.EQ	$16,R4
 000004b4: 03a05010	(134)	MOVW.EQ	$16,R5
 000004b8: 03a0b002	(135)	MOVW.EQ	$2,R11
 000004bc: c3a04018	(137)	MOVW.GT	$24,R4
 000004c0: c3a05008	(138)	MOVW.GT	$8,R5
 000004c4: c3a0b003	(139)	MOVW.GT	$3,R11
 000004c8: e2803008	(140)	ADD	$8,R0,R3
 000004cc: e1510003	(142)	CMP	R3,R1,
 000004d0: 9affffea	(143)	BLS	,_b1tail+00480(BRANCH)
 000004d4: e3c22003	(145)	BIC	$3,R2
 000004d8: e5926000	(146)	MOVW	0(R2),R6
 000004dc: e1510003	(149)	CMP	R3,R1,
 000004e0: 9a000006	(150)	BLS	,_bu1tail+00500(BRANCH)
 000004e4: e1a08516	(152)	MOVW	R6<<R5,R8
 000004e8: e93200c0	(152)	MOVM.P.W	0(R2),$192
 000004ec: e1888437	(154)	ORR	R7>>R4,R8
 000004f0: e1a07517	(156)	MOVW	R7<<R5,R7
 000004f4: e1877436	(157)	ORR	R6>>R4,R7
 000004f8: e9210180	(158)	MOVM.P.W	$384,0(R1)
 000004fc: eafffff6	(149)	B	,004dc(BRANCH)
 00000500: e082200b	(163)	ADD	R11,R2
 00000504: eaffffdd	(61)	B	,00480(BRANCH)
 00000508: e3530004	(69)	CMP	$4,R3,
 0000050c: ba000015	(70)	BLT	,_f1tail+00568(BRANCH)
 00000510: e2103003	(72)	AND.S	$3,R0,R3
 00000514: 0a000003	(74)	BEQ	,_f4aligned+00528(BRANCH)
 00000518: e4d23001	(76)	MOVBU.P	1(R2),R3
 0000051c: e4c03001	(76)	MOVBU.P	R3,1(R0)
 00000520: e2103003	(72)	AND.S	$3,R0,R3
 00000524: 1afffffb	(74)	BNE	,_f4aligned+00518(BRANCH)
 00000528: e2123003	(80)	AND.S	$3,R2,R3
 0000052c: 1a000012	(82)	BNE	,_funaligned+0057c(BRANCH)
 00000530: e241301f	(83)	SUB	$31,R1,R3
 00000534: e1500003	(86)	CMP	R3,R0,
 00000538: 2a000004	(87)	BHS	,_f4tail+00550(BRANCH)
 0000053c: e8b200f0	(88)	MOVM.W.U	0(R2),$240
 00000540: e8a000f0	(89)	MOVM.W.U	$240,0(R0)
 00000544: e8b200f0	(90)	MOVM.W.U	0(R2),$240
 00000548: e8a000f0	(91)	MOVM.W.U	$240,0(R0)
 0000054c: eafffff8	(86)	B	,00534(BRANCH)
 00000550: e2413003	(95)	SUB	$3,R1,R3
 00000554: e1500003	(98)	CMP	R3,R0,
 00000558: 2a000002	(99)	BHS	,_f1tail+00568(BRANCH)
 0000055c: e4924004	(101)	MOVW.P	4(R2),R4
 00000560: e4804004	(101)	MOVW.P	R4,4(R0)
 00000564: eafffffa	(98)	B	,00554(BRANCH)
 00000568: e1510000	(106)	CMP	R0,R1,
 0000056c: 0affffc9	(107)	BEQ	,_return+00498(BRANCH)
 00000570: e4d23001	(109)	MOVBU.P	1(R2),R3
 00000574: e4c03001	(109)	MOVBU.P	R3,1(R0)
 00000578: eafffffa	(106)	B	,00568(BRANCH)
 0000057c: e3530002	(176)	CMP	$2,R3,
 00000580: b3a04008	(178)	MOVW.LT	$8,R4
 00000584: b3a05018	(179)	MOVW.LT	$24,R5
 00000588: b3a0b003	(180)	MOVW.LT	$3,R11
 0000058c: 03a04010	(182)	MOVW.EQ	$16,R4
 00000590: 03a05010	(183)	MOVW.EQ	$16,R5
 00000594: 03a0b002	(184)	MOVW.EQ	$2,R11
 00000598: c3a04018	(186)	MOVW.GT	$24,R4
 0000059c: c3a05008	(187)	MOVW.GT	$8,R5
 000005a0: c3a0b001	(188)	MOVW.GT	$1,R11
 000005a4: e2413008	(189)	SUB	$8,R1,R3
 000005a8: e1500003	(191)	CMP	R3,R0,
 000005ac: 2affffed	(192)	BHS	,_f1tail+00568(BRANCH)
 000005b0: e3c22003	(194)	BIC	$3,R2
 000005b4: e4928004	(195)	MOVW.P	4(R2),R8
 000005b8: e1500003	(198)	CMP	R3,R0,
 000005bc: 2a000006	(199)	BHS	,_fu1tail+005dc(BRANCH)
 000005c0: e1a06438	(201)	MOVW	R8>>R4,R6
 000005c4: e8b20180	(201)	MOVM.W.U	0(R2),$384
 000005c8: e1866517	(203)	ORR	R7<<R5,R6
 000005cc: e1a07437	(205)	MOVW	R7>>R4,R7
 000005d0: e1877518	(206)	ORR	R8<<R5,R7
 000005d4: e8a000c0	(207)	MOVM.W.U	$192,0(R0)
 000005d8: eafffff6	(198)	B	,005b8(BRANCH)
 000005dc: e042200b	(212)	SUB	R11,R2
 000005e0: eaffffe0	(106)	B	,00568(BRANCH)
 000005e4:		(10)	TEXT	memmove+0(SB),$-4
 000005e4: eaffff86	(13)	B	,00404(BRANCH)
 000005e8: eafffffe	(0)	B	,0(APC)
 000005ec: 00001604	(0)	WORD	,$setR12+0(SB)
 000005f0: f1012000	(0)	WORD	,$-251584512
 000005f4: 600000fc	(0)	WORD	,$1610612988
 000005f8: 0000100e	(0)	WORD	,$4110
 000005fc: 60010000	(0)	WORD	,$1610678272
 00000600: 0000041e	(0)	WORD	,$1054
 00000604: 0000300d	(0)	WORD	,$12301

